Certificate:
    Data:
        Version: 3 (0x2)
        Serial Number: 2 (0x2)
        Signature Algorithm: sha1WithRSAEncryption
        Issuer: CN=rootca/emailAddress=rootca@domain.org
        Validity
            Not Before: Nov 29 07:50:15 2008 GMT
            Not After : Nov 29 07:50:15 2009 GMT
        Subject: CN=client/emailAddress=client@domain.org
        Subject Public Key Info:
            Public Key Algorithm: rsaEncryption
            RSA Public Key: (1024 bit)
                Modulus (1024 bit):
                    00:e7:1d:ea:4e:ea:81:99:c0:41:1a:16:65:75:58:
                    c1:94:29:74:a9:cc:4d:3c:fb:86:a6:50:44:db:f7:
                    03:e1:30:6c:bb:ed:c5:d8:55:83:55:27:ae:c5:ef:
                    ed:a5:00:22:d9:d1:2e:99:0e:5c:a8:ad:2d:04:69:
                    bf:81:d0:d3:ca:14:8c:51:2a:01:f5:7d:e8:28:84:
                    da:60:7d:36:ae:b5:52:a7:84:cd:15:5f:31:3a:d4:
                    97:b5:b5:4c:ae:fb:40:e0:9b:cf:e7:8d:0b:e9:d3:
                    fb:70:a3:d5:03:66:95:20:e6:b6:26:8f:85:9d:60:
                    eb:fd:23:f2:72:64:2c:a5:55
                Exponent: 65537 (0x10001)
        X509v3 extensions:
            X509v3 Basic Constraints: 
                CA:FALSE
    Signature Algorithm: sha1WithRSAEncryption
        55:dc:d0:ee:89:ed:02:30:12:cb:2c:05:aa:a2:2a:e3:57:56:
        43:c5:90:4f:99:2f:b4:6e:94:36:9c:6c:8d:6b:64:8d:9b:d0:
        f2:43:d1:4c:6a:8c:48:c4:b1:3d:bd:c6:0f:c9:ef:cc:b3:44:
        06:93:1d:d3:11:71:96:0c:dc:23:f0:56:02:d0:4d:08:f7:f2:
        9b:bb:43:61:d2:2f:a2:ad:a4:6a:7f:16:69:98:22:bf:84:8c:
        2e:c5:7b:92:46:66:20:2f:b4:02:d1:d0:21:48:70:e9:23:88:
        73:1c:66:f0:3e:ae:5c:7b:46:8d:98:65:47:d2:f5:ee:9c:e9:
        51:2f
-----BEGIN CERTIFICATE-----
MIIB6TCCAVKgAwIBAgIBAjANBgkqhkiG9w0BAQUFADAzMQ8wDQYDVQQDEwZyb290
Y2ExIDAeBgkqhkiG9w0BCQEWEXJvb3RjYUBkb21haW4ub3JnMB4XDTA4MTEyOTA3
NTAxNVoXDTA5MTEyOTA3NTAxNVowMzEPMA0GA1UEAxMGY2xpZW50MSAwHgYJKoZI
hvcNAQkBFhFjbGllbnRAZG9tYWluLm9yZzCBnzANBgkqhkiG9w0BAQEFAAOBjQAw
gYkCgYEA5x3qTuqBmcBBGhZldVjBlCl0qcxNPPuGplBE2/cD4TBsu+3F2FWDVSeu
xe/tpQAi2dEumQ5cqK0tBGm/gdDTyhSMUSoB9X3oKITaYH02rrVSp4TNFV8xOtSX
tbVMrvtA4JvP540L6dP7cKPVA2aVIOa2Jo+FnWDr/SPycmQspVUCAwEAAaMNMAsw
CQYDVR0TBAIwADANBgkqhkiG9w0BAQUFAAOBgQBV3NDuie0CMBLLLAWqoirjV1ZD
xZBPmS+0bpQ2nGyNa2SNm9DyQ9FMaoxIxLE9vcYPye/Ms0QGkx3TEXGWDNwj8FYC
0E0I9/Kbu0Nh0i+iraRqfxZpmCK/hIwuxXuSRmYgL7QC0dAhSHDpI4hzHGbwPq5c
e0aNmGVH0vXunOlRLw==
-----END CERTIFICATE-----
-----BEGIN RSA PRIVATE KEY-----
Proc-Type: 4,ENCRYPTED
DEK-Info: DES-EDE3-CBC,495CE996AC18D09D

PfLyTlBOykwCelwldFWrXbTeZtKUWp6TcOrZZYvXXIPNOo7ytwgnYw6stqYr/0Fh
tJDoWIltHAchljCeGrcBqVCoXLpI8Zzf0l8g6j3DTbESmT53tktR1Os8SIa2eTiq
+Cq9cuCEJpQOzI+HkoLNhCRFQgQXnKU/Fdudc7SkjGuRe5TdhlSEytkcp/yEDB0a
eSTXCydD6FPoC24P79UDM0/4jiaF52NUgcGCO4LGiJDeKN3HGn7d9EcC4DECSmLs
B7dDI7ManXwxITDcAWkZPEhZ+Z2z/wf0+QGszSSHTvLzzxLQOb3Zl27yqDPwCwyk
wIKz+YW6QOKDeGDoelHz366BL/BVtRxcWQp7bugXzxuF7LmpLX0veOo6QeIm3buH
m9hDJBPsTILWNjJWiUJAHEa+zFa0lZ1GlOs2dv3+GYDilGYWO/KJKFpJYAKJ7Vgm
Mv+/bFBr987BYQ4gmZslKHdD2cVrcP9oKZv1e9WG2hfyTlEoJ5Wow1V1JzIBYz9n
cvTvvdSxUH1JPASk6FJyVcti90z1twPCW5NEERmZzKWDyujeGCydf7MGqfVqy+rB
QmJK5atzNIOv8fvxIfgMSqrAZ13qxXjgWu7g4lXxWyds6LO7EtE5EyQ2hV2JSLBY
Pttxd9ntPosgJX7Bh68LeEgW26U2vtdt0wj4Spzlq8EKlDCN3dqJ5+VSOzIwQ2dC
UQOicycDMW29r/eOpQkdaAO0Rkwp/BUh3XZmEv8jUC6hYgETzIFufEUlCyxpWouT
K0SUh6NyoeXq4Qp1P4ixKWliZoKCOLm5x6EW4FIoYw+6AzLhDUJKqA==
-----END RSA PRIVATE KEY-----
-----BEGIN CERTIFICATE-----
MIICejCCAeOgAwIBAgIJAIkk/JhV3sGiMA0GCSqGSIb3DQEBBQUAMDMxDzANBgNV
BAMTBnJvb3RjYTEgMB4GCSqGSIb3DQEJARYRcm9vdGNhQGRvbWFpbi5vcmcwHhcN
MDgxMTI5MDc0OTA0WhcNMDgxMjI5MDc0OTA0WjAzMQ8wDQYDVQQDEwZyb290Y2Ex
IDAeBgkqhkiG9w0BCQEWEXJvb3RjYUBkb21haW4ub3JnMIGfMA0GCSqGSIb3DQEB
AQUAA4GNADCBiQKBgQCnuKysI837sxbCD3U8B5xEgl/2pHQg6LdrrrBdigf8sbTE
p377Qaxq2CjtNtn2R8WwoRDruZC3A42vOO6Np0zDJfDFqzxSnV+/oLmZ7Gq3SKFS
S6Ikke6iFePjQC5VnR/zn1aYhTqCPuMCdtGa9Ie+YQMa0llSahf0Gf792JBfDwID
AQABo4GVMIGSMAwGA1UdEwQFMAMBAf8wHQYDVR0OBBYEFBT1UnJ3Jp+/aTyRKV9n
racpliVqMGMGA1UdIwRcMFqAFBT1UnJ3Jp+/aTyRKV9nracpliVqoTekNTAzMQ8w
DQYDVQQDEwZyb290Y2ExIDAeBgkqhkiG9w0BCQEWEXJvb3RjYUBkb21haW4ub3Jn
ggkAiST8mFXewaIwDQYJKoZIhvcNAQEFBQADgYEAQreSfoanN6mcUdRBOnm+aLoh
57gbxlGwSv+X5J6gmT8t/BsNcIK2FbbGB0QQRZbSjyHqyWir1shMh/E4pPoLeHQ8
VGcFL/DNNMQYhMItyPlYiDRWd1qanocnu/wFeXCnOePaYhNRnKolCanMT7QnjH7k
VkIyCWH/fJwuBjqgX7I=
-----END CERTIFICATE-----
